; Function Attrs: mustprogress nofree norecurse nosync nounwind willreturn memory(argmem: write) uwtable
define dso_local void @_ZN4llvm8AsmLexer9setBufferENS_9StringRefEPKcb(ptr nocapture noundef nonnull writeonly align 8 dereferenceable(180) %0, ptr %1, i64 %2, ptr noundef %3, i1 noundef zeroext %4) local_unnamed_addr #4 align 2 {
  %6 = getelementptr inbounds nuw i8, ptr %0, i64 160
  store ptr %1, ptr %6, align 8
  %.sroa.2.0..sroa_idx = getelementptr inbounds i8, ptr %0, i64 168
  store i64 %2, ptr %.sroa.2.0..sroa_idx, align 8
  %.not = icmp eq ptr %3, null
  %spec.select = select i1 %.not, ptr %1, ptr %3
  %7 = getelementptr inbounds nuw i8, ptr %0, i64 152
  store ptr %spec.select, ptr %7, align 8
  %8 = zext i1 %4 to i8
  %9 = getelementptr inbounds nuw i8, ptr %0, i64 104
  store ptr null, ptr %9, align 8
  %10 = getelementptr inbounds nuw i8, ptr %0, i64 179
  store i8 %8, ptr %10, align 1
  ret void
}